target datalayout = "e-m:e-p270:32:32-p271:32:32-p272:64:64-i64:64-i128:128-f80:128-n8:16:32:64-S128"
target triple = "x86_64-pc-linux-gnu"

%struct.transcoder_entry_t = type { ptr, ptr, ptr, ptr }

@rb_eArgError = external global i64, align 8
@.str.1 = private unnamed_addr constant [30 x i8] c"invalid library name - (null)\00", align 1

; Function Attrs: nounwind sspstrong uwtable
define internal void @declare_transcoder(ptr noundef %0, ptr noundef %1, ptr noundef %2) #0 {
  %4 = alloca ptr, align 8
  %5 = alloca ptr, align 8
  %6 = alloca ptr, align 8
  %7 = alloca ptr, align 8
  store ptr %0, ptr %4, align 8, !tbaa !21
  store ptr %1, ptr %5, align 8, !tbaa !21
  store ptr %2, ptr %6, align 8, !tbaa !21
  call void @llvm.lifetime.start.p0(i64 8, ptr %7) #25
  %8 = load ptr, ptr %4, align 8, !tbaa !21
  %9 = load ptr, ptr %5, align 8, !tbaa !21
  %10 = call ptr @make_transcoder_entry(ptr noundef %8, ptr noundef %9)
  store ptr %10, ptr %7, align 8, !tbaa !23
  %11 = load ptr, ptr %6, align 8, !tbaa !21
  %12 = load ptr, ptr %7, align 8, !tbaa !23
  %13 = getelementptr inbounds nuw %struct.transcoder_entry_t, ptr %12, i32 0, i32 2
  store ptr %11, ptr %13, align 8, !tbaa !28
  call void @llvm.lifetime.end.p0(i64 8, ptr %7) #25
  ret void
}

; Function Attrs: nounwind sspstrong uwtable
define dso_local void @rb_declare_transcoder(ptr noundef %0, ptr noundef %1, ptr noundef %2) #0 {
  %4 = alloca ptr, align 8
  %5 = alloca ptr, align 8
  %6 = alloca ptr, align 8
  store ptr %0, ptr %4, align 8, !tbaa !21
  store ptr %1, ptr %5, align 8, !tbaa !21
  store ptr %2, ptr %6, align 8, !tbaa !21
  %7 = load ptr, ptr %6, align 8, !tbaa !21
  %8 = icmp ne ptr %7, null
  br i1 %8, label %11, label %9

9:                                                ; preds = %3
  %10 = load i64, ptr @rb_eArgError, align 8, !tbaa !12
  call void (i64, ptr, ...) @rb_raise(i64 noundef %10, ptr noundef @.str.1) #26
  unreachable

11:                                               ; preds = %3
  %12 = load ptr, ptr %4, align 8, !tbaa !21
  %13 = load ptr, ptr %5, align 8, !tbaa !21
  %14 = load ptr, ptr %6, align 8, !tbaa !21
  call void @declare_transcoder(ptr noundef %12, ptr noundef %13, ptr noundef %14)
  ret void
}