; Function Attrs: nounwind sspstrong uwtable
define dso_local void @rb_declare_transcoder(ptr noundef %0, ptr noundef %1, ptr noundef %2) local_unnamed_addr #0 {
  %.not = icmp eq ptr %2, null
  br i1 %.not, label %4, label %6

4:                                                ; preds = %3
  %5 = load i64, ptr @rb_eArgError, align 8, !tbaa !22
  tail call void (i64, ptr, ...) @rb_raise(i64 noundef %5, ptr noundef nonnull @.str.1) #23
  unreachable

6:                                                ; preds = %3
  %7 = tail call fastcc ptr @make_transcoder_entry(ptr noundef %0, ptr noundef %1)
  %8 = getelementptr inbounds nuw i8, ptr %7, i64 16
  store ptr %2, ptr %8, align 8, !tbaa !25
  ret void
}